target datalayout = "e-m:e-p270:32:32-p271:32:32-p272:64:64-i64:64-i128:128-f80:128-n8:16:32:64-S128"
target triple = "x86_64-pc-linux-gnu"

%struct._object = type { %union.anon, ptr }
%union.anon = type { i64 }
%struct.anon = type { i32, i32 }
%struct.Py_buffer = type { ptr, ptr, i64, i64, i32, i32, ptr, ptr, ptr, ptr, ptr }
%struct.PyVarObject = type { %struct._object, i64 }
%struct.PyBytesObject = type { %struct.PyVarObject, i64, [1 x i8] }

@_Py_NoneStruct = external global %struct._object, align 8
@PyExc_ValueError = external global ptr, align 8
@PyExc_OverflowError = external global ptr, align 8
@.str.91 = private unnamed_addr constant [22 x i8] c"password is too long.\00", align 1
@.str.92 = private unnamed_addr constant [18 x i8] c"salt is too long.\00", align 1
@.str.93 = private unnamed_addr constant [40 x i8] c"iteration value must be greater than 0.\00", align 1
@.str.94 = private unnamed_addr constant [30 x i8] c"iteration value is too great.\00", align 1
@.str.95 = private unnamed_addr constant [35 x i8] c"key length must be greater than 0.\00", align 1
@.str.96 = private unnamed_addr constant [25 x i8] c"key length is too great.\00", align 1

; Function Attrs: alwaysinline nounwind uwtable
define internal i32 @_Py_IsImmortal(ptr noundef %0) #3 {
  %2 = alloca ptr, align 8
  store ptr %0, ptr %2, align 8, !tbaa !14
  %3 = load ptr, ptr %2, align 8, !tbaa !14
  %4 = getelementptr inbounds nuw %struct._object, ptr %3, i32 0, i32 0
  %5 = getelementptr inbounds nuw %struct.anon, ptr %4, i32 0, i32 0
  %6 = load i32, ptr %5, align 8, !tbaa !28
  %7 = icmp slt i32 %6, 0
  %8 = zext i1 %7 to i32
  ret i32 %8
}

; Function Attrs: alwaysinline nounwind uwtable
define internal void @Py_DECREF(ptr noundef %0) #3 {
  %2 = alloca ptr, align 8
  store ptr %0, ptr %2, align 8, !tbaa !14
  %3 = load ptr, ptr %2, align 8, !tbaa !14
  %4 = call i32 @_Py_IsImmortal(ptr noundef %3)
  %5 = icmp ne i32 %4, 0
  br i1 %5, label %6, label %7

6:                                                ; preds = %1
  br label %16

7:                                                ; preds = %1
  %8 = load ptr, ptr %2, align 8, !tbaa !14
  %9 = getelementptr inbounds nuw %struct._object, ptr %8, i32 0, i32 0
  %10 = getelementptr inbounds nuw %struct.anon, ptr %9, i32 0, i32 0
  %11 = load i32, ptr %10, align 8, !tbaa !28
  %12 = add i32 %11, -1
  store i32 %12, ptr %10, align 8, !tbaa !28
  %13 = icmp eq i32 %12, 0
  br i1 %13, label %14, label %16

14:                                               ; preds = %7
  %15 = load ptr, ptr %2, align 8, !tbaa !14
  call void @_Py_Dealloc(ptr noundef %15)
  br label %16

16:                                               ; preds = %6, %14, %7
  ret void
}

; Function Attrs: inlinehint nounwind uwtable
define internal ptr @PyBytes_AS_STRING(ptr noundef %0) #4 {
  %2 = alloca ptr, align 8
  store ptr %0, ptr %2, align 8, !tbaa !14
  %3 = load ptr, ptr %2, align 8, !tbaa !14
  %4 = getelementptr inbounds nuw %struct.PyBytesObject, ptr %3, i32 0, i32 2
  %5 = getelementptr inbounds [1 x i8], ptr %4, i64 0, i64 0
  ret ptr %5
}

; Function Attrs: nounwind uwtable
define internal ptr @pbkdf2_hmac_impl(ptr noundef %0, ptr noundef %1, ptr noundef %2, ptr noundef %3, i64 noundef %4, ptr noundef %5) #0 {
  %7 = alloca ptr, align 8
  %8 = alloca ptr, align 8
  %9 = alloca ptr, align 8
  %10 = alloca ptr, align 8
  %11 = alloca i64, align 8
  %12 = alloca ptr, align 8
  %13 = alloca ptr, align 8
  %14 = alloca ptr, align 8
  %15 = alloca i64, align 8
  %16 = alloca i32, align 4
  %17 = alloca ptr, align 8
  %18 = alloca ptr, align 8
  %19 = alloca ptr, align 8
  %20 = alloca ptr, align 8
  store ptr %0, ptr %7, align 8, !tbaa !14
  store ptr %1, ptr %8, align 8, !tbaa !21
  store ptr %2, ptr %9, align 8, !tbaa !3
  store ptr %3, ptr %10, align 8, !tbaa !3
  store i64 %4, ptr %11, align 8, !tbaa !32
  store ptr %5, ptr %12, align 8, !tbaa !14
  call void @llvm.lifetime.start.p0(i64 8, ptr %13) #9
  store ptr null, ptr %13, align 8, !tbaa !14
  call void @llvm.lifetime.start.p0(i64 8, ptr %14) #9
  call void @llvm.lifetime.start.p0(i64 8, ptr %15) #9
  call void @llvm.lifetime.start.p0(i64 4, ptr %16) #9
  call void @llvm.lifetime.start.p0(i64 8, ptr %17) #9
  %21 = load ptr, ptr %7, align 8, !tbaa !14
  %22 = load ptr, ptr %8, align 8, !tbaa !21
  %23 = call ptr @py_digest_by_name(ptr noundef %21, ptr noundef %22, i32 noundef 3)
  store ptr %23, ptr %17, align 8, !tbaa !17
  %24 = load ptr, ptr %17, align 8, !tbaa !17
  %25 = icmp eq ptr %24, null
  br i1 %25, label %26, label %27

26:                                               ; preds = %6
  br label %127

27:                                               ; preds = %6
  %28 = load ptr, ptr %9, align 8, !tbaa !3
  %29 = getelementptr inbounds nuw %struct.Py_buffer, ptr %28, i32 0, i32 2
  %30 = load i64, ptr %29, align 8, !tbaa !40
  %31 = icmp sgt i64 %30, 2147483647
  br i1 %31, label %32, label %34

32:                                               ; preds = %27
  %33 = load ptr, ptr @PyExc_OverflowError, align 8, !tbaa !14
  call void @PyErr_SetString(ptr noundef %33, ptr noundef @.str.91)
  br label %127

34:                                               ; preds = %27
  %35 = load ptr, ptr %10, align 8, !tbaa !3
  %36 = getelementptr inbounds nuw %struct.Py_buffer, ptr %35, i32 0, i32 2
  %37 = load i64, ptr %36, align 8, !tbaa !40
  %38 = icmp sgt i64 %37, 2147483647
  br i1 %38, label %39, label %41

39:                                               ; preds = %34
  %40 = load ptr, ptr @PyExc_OverflowError, align 8, !tbaa !14
  call void @PyErr_SetString(ptr noundef %40, ptr noundef @.str.92)
  br label %127

41:                                               ; preds = %34
  %42 = load i64, ptr %11, align 8, !tbaa !32
  %43 = icmp slt i64 %42, 1
  br i1 %43, label %44, label %46

44:                                               ; preds = %41
  %45 = load ptr, ptr @PyExc_ValueError, align 8, !tbaa !14
  call void @PyErr_SetString(ptr noundef %45, ptr noundef @.str.93)
  br label %127

46:                                               ; preds = %41
  %47 = load i64, ptr %11, align 8, !tbaa !32
  %48 = icmp sgt i64 %47, 2147483647
  br i1 %48, label %49, label %51

49:                                               ; preds = %46
  %50 = load ptr, ptr @PyExc_OverflowError, align 8, !tbaa !14
  call void @PyErr_SetString(ptr noundef %50, ptr noundef @.str.94)
  br label %127

51:                                               ; preds = %46
  %52 = load ptr, ptr %12, align 8, !tbaa !14
  %53 = icmp eq ptr %52, @_Py_NoneStruct
  br i1 %53, label %54, label %58

54:                                               ; preds = %51
  %55 = load ptr, ptr %17, align 8, !tbaa !17
  %56 = call i32 @EVP_MD_get_size(ptr noundef %55)
  %57 = sext i32 %56 to i64
  store i64 %57, ptr %15, align 8, !tbaa !32
  br label %68

58:                                               ; preds = %51
  %59 = load ptr, ptr %12, align 8, !tbaa !14
  %60 = call i64 @PyLong_AsLong(ptr noundef %59)
  store i64 %60, ptr %15, align 8, !tbaa !32
  %61 = load i64, ptr %15, align 8, !tbaa !32
  %62 = icmp eq i64 %61, -1
  br i1 %62, label %63, label %67

63:                                               ; preds = %58
  %64 = call ptr @PyErr_Occurred()
  %65 = icmp ne ptr %64, null
  br i1 %65, label %66, label %67

66:                                               ; preds = %63
  br label %127

67:                                               ; preds = %63, %58
  br label %68

68:                                               ; preds = %67, %54
  %69 = load i64, ptr %15, align 8, !tbaa !32
  %70 = icmp slt i64 %69, 1
  br i1 %70, label %71, label %73

71:                                               ; preds = %68
  %72 = load ptr, ptr @PyExc_ValueError, align 8, !tbaa !14
  call void @PyErr_SetString(ptr noundef %72, ptr noundef @.str.95)
  br label %127

73:                                               ; preds = %68
  %74 = load i64, ptr %15, align 8, !tbaa !32
  %75 = icmp sgt i64 %74, 2147483647
  br i1 %75, label %76, label %78

76:                                               ; preds = %73
  %77 = load ptr, ptr @PyExc_OverflowError, align 8, !tbaa !14
  call void @PyErr_SetString(ptr noundef %77, ptr noundef @.str.96)
  br label %127

78:                                               ; preds = %73
  %79 = load i64, ptr %15, align 8, !tbaa !32
  %80 = call ptr @PyBytes_FromStringAndSize(ptr noundef null, i64 noundef %79)
  store ptr %80, ptr %13, align 8, !tbaa !14
  %81 = load ptr, ptr %13, align 8, !tbaa !14
  %82 = icmp eq ptr %81, null
  br i1 %82, label %83, label %84

83:                                               ; preds = %78
  br label %127

84:                                               ; preds = %78
  %85 = load ptr, ptr %13, align 8, !tbaa !14
  %86 = call ptr @PyBytes_AS_STRING(ptr noundef %85)
  store ptr %86, ptr %14, align 8, !tbaa !21
  call void @llvm.lifetime.start.p0(i64 8, ptr %18) #9
  %87 = call ptr @PyEval_SaveThread()
  store ptr %87, ptr %18, align 8, !tbaa !41
  %88 = load ptr, ptr %9, align 8, !tbaa !3
  %89 = getelementptr inbounds nuw %struct.Py_buffer, ptr %88, i32 0, i32 0
  %90 = load ptr, ptr %89, align 8, !tbaa !43
  %91 = load ptr, ptr %9, align 8, !tbaa !3
  %92 = getelementptr inbounds nuw %struct.Py_buffer, ptr %91, i32 0, i32 2
  %93 = load i64, ptr %92, align 8, !tbaa !40
  %94 = trunc i64 %93 to i32
  %95 = load ptr, ptr %10, align 8, !tbaa !3
  %96 = getelementptr inbounds nuw %struct.Py_buffer, ptr %95, i32 0, i32 0
  %97 = load ptr, ptr %96, align 8, !tbaa !43
  %98 = load ptr, ptr %10, align 8, !tbaa !3
  %99 = getelementptr inbounds nuw %struct.Py_buffer, ptr %98, i32 0, i32 2
  %100 = load i64, ptr %99, align 8, !tbaa !40
  %101 = trunc i64 %100 to i32
  %102 = load i64, ptr %11, align 8, !tbaa !32
  %103 = trunc i64 %102 to i32
  %104 = load ptr, ptr %17, align 8, !tbaa !17
  %105 = load i64, ptr %15, align 8, !tbaa !32
  %106 = trunc i64 %105 to i32
  %107 = load ptr, ptr %14, align 8, !tbaa !21
  %108 = call i32 @PKCS5_PBKDF2_HMAC(ptr noundef %90, i32 noundef %94, ptr noundef %97, i32 noundef %101, i32 noundef %103, ptr noundef %104, i32 noundef %106, ptr noundef %107)
  store i32 %108, ptr %16, align 4, !tbaa !19
  %109 = load ptr, ptr %18, align 8, !tbaa !41
  call void @PyEval_RestoreThread(ptr noundef %109)
  call void @llvm.lifetime.end.p0(i64 8, ptr %18) #9
  %110 = load i32, ptr %16, align 4, !tbaa !19
  %111 = icmp ne i32 %110, 0
  br i1 %111, label %126, label %112

112:                                              ; preds = %84
  br label %113

113:                                              ; preds = %112
  call void @llvm.lifetime.start.p0(i64 8, ptr %19) #9
  store ptr %13, ptr %19, align 8, !tbaa !30
  call void @llvm.lifetime.start.p0(i64 8, ptr %20) #9
  %114 = load ptr, ptr %19, align 8, !tbaa !30
  %115 = load ptr, ptr %114, align 8, !tbaa !14
  store ptr %115, ptr %20, align 8, !tbaa !14
  %116 = load ptr, ptr %20, align 8, !tbaa !14
  %117 = icmp ne ptr %116, null
  br i1 %117, label %118, label %121

118:                                              ; preds = %113
  %119 = load ptr, ptr %19, align 8, !tbaa !30
  store ptr null, ptr %119, align 8, !tbaa !14
  %120 = load ptr, ptr %20, align 8, !tbaa !14
  call void @Py_DECREF(ptr noundef %120)
  br label %121

121:                                              ; preds = %118, %113
  call void @llvm.lifetime.end.p0(i64 8, ptr %20) #9
  call void @llvm.lifetime.end.p0(i64 8, ptr %19) #9
  br label %122

122:                                              ; preds = %121
  br label %123

123:                                              ; preds = %122
  %124 = load ptr, ptr @PyExc_ValueError, align 8, !tbaa !14
  %125 = call ptr (ptr, ptr, ...) @_setException(ptr noundef %124, ptr noundef null)
  br label %127

126:                                              ; preds = %84
  br label %127

127:                                              ; preds = %126, %123, %83, %76, %71, %66, %49, %44, %39, %32, %26
  %128 = load ptr, ptr %17, align 8, !tbaa !17
  %129 = icmp ne ptr %128, null
  br i1 %129, label %130, label %132

130:                                              ; preds = %127
  %131 = load ptr, ptr %17, align 8, !tbaa !17
  call void @EVP_MD_free(ptr noundef %131)
  br label %132

132:                                              ; preds = %130, %127
  %133 = load ptr, ptr %13, align 8, !tbaa !14
  call void @llvm.lifetime.end.p0(i64 8, ptr %17) #9
  call void @llvm.lifetime.end.p0(i64 4, ptr %16) #9
  call void @llvm.lifetime.end.p0(i64 8, ptr %15) #9
  call void @llvm.lifetime.end.p0(i64 8, ptr %14) #9
  call void @llvm.lifetime.end.p0(i64 8, ptr %13) #9
  ret ptr %133
}