; Function Attrs: nounwind uwtable
define internal fastcc ptr @pbkdf2_hmac_impl(ptr noundef %0, ptr noundef nonnull %1, ptr noundef nonnull readonly captures(none) %2, ptr noundef nonnull readonly captures(none) %3, i64 noundef %4, ptr noundef %5) unnamed_addr #0 {
  %7 = tail call fastcc ptr @py_digest_by_name(ptr noundef %0, ptr noundef nonnull %1, i32 noundef 3)
  %8 = icmp eq ptr %7, null
  br i1 %8, label %69, label %9

9:                                                ; preds = %6
  %10 = getelementptr inbounds nuw i8, ptr %2, i64 16
  %11 = load i64, ptr %10, align 8, !tbaa !40
  %12 = icmp sgt i64 %11, 2147483647
  br i1 %12, label %13, label %15

13:                                               ; preds = %9
  %14 = load ptr, ptr @PyExc_OverflowError, align 8, !tbaa !23
  tail call void @PyErr_SetString(ptr noundef %14, ptr noundef nonnull @.str.91) #9
  br label %68

15:                                               ; preds = %9
  %16 = getelementptr inbounds nuw i8, ptr %3, i64 16
  %17 = load i64, ptr %16, align 8, !tbaa !40
  %18 = icmp sgt i64 %17, 2147483647
  br i1 %18, label %19, label %21

19:                                               ; preds = %15
  %20 = load ptr, ptr @PyExc_OverflowError, align 8, !tbaa !23
  tail call void @PyErr_SetString(ptr noundef %20, ptr noundef nonnull @.str.92) #9
  br label %68

21:                                               ; preds = %15
  %22 = icmp slt i64 %4, 1
  br i1 %22, label %23, label %25

23:                                               ; preds = %21
  %24 = load ptr, ptr @PyExc_ValueError, align 8, !tbaa !23
  tail call void @PyErr_SetString(ptr noundef %24, ptr noundef nonnull @.str.93) #9
  br label %68

25:                                               ; preds = %21
  %26 = icmp samesign ugt i64 %4, 2147483647
  br i1 %26, label %27, label %29

27:                                               ; preds = %25
  %28 = load ptr, ptr @PyExc_OverflowError, align 8, !tbaa !23
  tail call void @PyErr_SetString(ptr noundef %28, ptr noundef nonnull @.str.94) #9
  br label %68

29:                                               ; preds = %25
  %30 = icmp eq ptr %5, @_Py_NoneStruct
  br i1 %30, label %31, label %34

31:                                               ; preds = %29
  %32 = tail call i32 @EVP_MD_get_size(ptr noundef nonnull %7) #9
  %33 = sext i32 %32 to i64
  br label %39

34:                                               ; preds = %29
  %35 = tail call i64 @PyLong_AsLong(ptr noundef %5) #9
  %36 = icmp eq i64 %35, -1
  br i1 %36, label %37, label %39

37:                                               ; preds = %34
  %38 = tail call ptr @PyErr_Occurred() #9
  %.not = icmp eq ptr %38, null
  br i1 %.not, label %.thread, label %68

39:                                               ; preds = %34, %31
  %.0 = phi i64 [ %33, %31 ], [ %35, %34 ]
  %40 = icmp slt i64 %.0, 1
  br i1 %40, label %.thread, label %42

.thread:                                          ; preds = %37, %39
  %41 = load ptr, ptr @PyExc_ValueError, align 8, !tbaa !23
  tail call void @PyErr_SetString(ptr noundef %41, ptr noundef nonnull @.str.95) #9
  br label %68

42:                                               ; preds = %39
  %43 = icmp samesign ugt i64 %.0, 2147483647
  br i1 %43, label %44, label %46

44:                                               ; preds = %42
  %45 = load ptr, ptr @PyExc_OverflowError, align 8, !tbaa !23
  tail call void @PyErr_SetString(ptr noundef %45, ptr noundef nonnull @.str.96) #9
  br label %68

46:                                               ; preds = %42
  %47 = tail call ptr @PyBytes_FromStringAndSize(ptr noundef null, i64 noundef %.0) #9
  %48 = icmp eq ptr %47, null
  br i1 %48, label %68, label %49

49:                                               ; preds = %46
  %50 = getelementptr inbounds nuw i8, ptr %47, i64 32
  %51 = tail call ptr @PyEval_SaveThread() #9
  %52 = load ptr, ptr %2, align 8, !tbaa !39
  %53 = load i64, ptr %10, align 8, !tbaa !40
  %54 = trunc i64 %53 to i32
  %55 = load ptr, ptr %3, align 8, !tbaa !39
  %56 = load i64, ptr %16, align 8, !tbaa !40
  %57 = trunc i64 %56 to i32
  %58 = trunc nuw nsw i64 %4 to i32
  %59 = trunc nuw nsw i64 %.0 to i32
  %60 = tail call i32 @PKCS5_PBKDF2_HMAC(ptr noundef %52, i32 noundef %54, ptr noundef %55, i32 noundef %57, i32 noundef %58, ptr noundef nonnull %7, i32 noundef %59, ptr noundef nonnull %50) #9
  tail call void @PyEval_RestoreThread(ptr noundef %51) #9
  %.not41 = icmp eq i32 %60, 0
  br i1 %.not41, label %61, label %68

61:                                               ; preds = %49
  %62 = load i32, ptr %47, align 8, !tbaa !21
  %.not.i = icmp sgt i32 %62, -1
  br i1 %.not.i, label %63, label %Py_DECREF.exit

63:                                               ; preds = %61
  %64 = add nsw i32 %62, -1
  store i32 %64, ptr %47, align 8, !tbaa !21
  %65 = icmp eq i32 %64, 0
  br i1 %65, label %66, label %Py_DECREF.exit

66:                                               ; preds = %63
  tail call void @_Py_Dealloc(ptr noundef nonnull %47) #9
  br label %Py_DECREF.exit

Py_DECREF.exit:                                   ; preds = %61, %63, %66
  %67 = load ptr, ptr @PyExc_ValueError, align 8, !tbaa !23
  tail call void (ptr, ptr, ...) @_setException(ptr noundef %67, ptr noundef null)
  br label %68

68:                                               ; preds = %49, %46, %37, %Py_DECREF.exit, %44, %.thread, %27, %23, %19, %13
  %.032.ph = phi ptr [ null, %37 ], [ null, %Py_DECREF.exit ], [ %47, %49 ], [ null, %46 ], [ null, %44 ], [ null, %.thread ], [ null, %27 ], [ null, %23 ], [ null, %19 ], [ null, %13 ]
  tail call void @EVP_MD_free(ptr noundef nonnull %7) #9
  br label %69

69:                                               ; preds = %6, %68
  %.03247 = phi ptr [ %.032.ph, %68 ], [ null, %6 ]
  ret ptr %.03247
}